; Function Attrs: mustprogress nounwind uwtable
define void @_ZN19OpenColorIO_v2_4dev19ColorSpaceTransform7deleterEPS0_(ptr noundef %t) #3 align 2 {
entry:
  %isnull = icmp eq ptr %t, null
  br i1 %isnull, label %delete.end, label %delete.notnull

delete.notnull:                                   ; preds = %entry
  %vtable = load ptr, ptr %t, align 8
  %vfn = getelementptr inbounds i8, ptr %vtable, i64 48
  %0 = load ptr, ptr %vfn, align 8
  tail call void %0(ptr noundef nonnull align 8 dereferenceable(16) %t) #20
  br label %delete.end

delete.end:                                       ; preds = %delete.notnull, %entry
  ret void
}